; Function Attrs: mustprogress uwtable
define noundef ptr @_ZNK6icu_7513LocaleMatcher12getBestMatchERNS_6Locale8IteratorER10UErrorCode(ptr nocapture noundef nonnull readonly align 8 dereferenceable(104) %this, ptr noundef nonnull align 8 dereferenceable(8) %desiredLocales, ptr noundef nonnull align 4 dereferenceable(4) %errorCode) local_unnamed_addr #2 align 2 personality ptr @__gxx_personality_v0 {
entry:
  %lsrIter = alloca %"class.icu_75::LocaleLsrIterator", align 8
  %agg.tmp = alloca %"struct.icu_75::LSR", align 8
  %0 = load i32, ptr %errorCode, align 4
  %cmp.i = icmp slt i32 %0, 1
  br i1 %cmp.i, label %if.end, label %return

if.end:                                           ; preds = %entry
  %vtable = load ptr, ptr %desiredLocales, align 8
  %vfn = getelementptr inbounds i8, ptr %vtable, i64 16
  %1 = load ptr, ptr %vfn, align 8
  %call2 = tail call noundef signext i8 %1(ptr noundef nonnull align 8 dereferenceable(8) %desiredLocales)
  %tobool3.not = icmp eq i8 %call2, 0
  br i1 %tobool3.not, label %if.then4, label %if.end5

if.then4:                                         ; preds = %if.end
  %defaultLocale = getelementptr inbounds i8, ptr %this, i64 96
  %2 = load ptr, ptr %defaultLocale, align 8
  br label %return

if.end5:                                          ; preds = %if.end
  %3 = load ptr, ptr %this, align 8
  store ptr %3, ptr %lsrIter, align 8
  %locales3.i = getelementptr inbounds i8, ptr %lsrIter, i64 8
  store ptr %desiredLocales, ptr %locales3.i, align 8
  %lifetime4.i = getelementptr inbounds i8, ptr %lsrIter, i64 16
  store i32 0, ptr %lifetime4.i, align 8
  %current.i = getelementptr inbounds i8, ptr %lsrIter, i64 24
  %bestDesiredIndex.i = getelementptr inbounds i8, ptr %lsrIter, i64 40
  call void @llvm.memset.p0.i64(ptr noundef nonnull align 8 dereferenceable(16) %current.i, i8 0, i64 16, i1 false)
  store i32 -1, ptr %bestDesiredIndex.i, align 8
  tail call void @llvm.experimental.noalias.scope.decl(metadata !29)
  %vtable.i = load ptr, ptr %desiredLocales, align 8, !noalias !29
  %vfn.i = getelementptr inbounds i8, ptr %vtable.i, i64 24
  %4 = load ptr, ptr %vfn.i, align 8, !noalias !29
  %call.i8 = invoke noundef nonnull align 8 dereferenceable(217) ptr %4(ptr noundef nonnull align 8 dereferenceable(8) %desiredLocales)
          to label %call.i.noexc unwind label %ehcleanup.thread

call.i.noexc:                                     ; preds = %if.end5
  store ptr %call.i8, ptr %current.i, align 8, !noalias !29
  tail call void @llvm.experimental.noalias.scope.decl(metadata !32)
  %5 = load i32, ptr %errorCode, align 4, !noalias !35
  %cmp.i.i.i = icmp slt i32 %5, 1
  %fIsBogus.i.i.i = getelementptr inbounds i8, ptr %call.i8, i64 216
  %6 = load i8, ptr %fIsBogus.i.i.i, align 8, !noalias !35
  %tobool2.not.i.i = icmp eq i8 %6, 0
  %or.cond.i.i = select i1 %cmp.i.i.i, i1 %tobool2.not.i.i, i1 false
  br i1 %or.cond.i.i, label %lor.lhs.false3.i.i, label %if.then.i.i

lor.lhs.false3.i.i:                               ; preds = %call.i.noexc
  %fullName.i.i.i = getelementptr inbounds i8, ptr %call.i8, i64 40
  %7 = load ptr, ptr %fullName.i.i.i, align 8, !noalias !35
  %8 = load i8, ptr %7, align 1, !noalias !35
  %cmp.i.i = icmp eq i8 %8, 0
  br i1 %cmp.i.i, label %if.then.i.i, label %if.else.i.i

if.then.i.i:                                      ; preds = %lor.lhs.false3.i.i, %call.i.noexc
  store ptr @.str, ptr %agg.tmp, align 8, !alias.scope !35
  %script.i.i.i = getelementptr inbounds i8, ptr %agg.tmp, i64 8
  store ptr @.str.1, ptr %script.i.i.i, align 8, !alias.scope !35
  %region.i.i.i = getelementptr inbounds i8, ptr %agg.tmp, i64 16
  store ptr @.str.1, ptr %region.i.i.i, align 8, !alias.scope !35
  %owned.i.i.i = getelementptr inbounds i8, ptr %agg.tmp, i64 24
  store ptr null, ptr %owned.i.i.i, align 8, !alias.scope !35
  %call.i.i.i9 = invoke noundef i32 @_ZN6icu_753LSR14indexForRegionEPKc(ptr noundef nonnull @.str.1)
          to label %call.i.i.i.noexc unwind label %ehcleanup.thread

call.i.i.i.noexc:                                 ; preds = %if.then.i.i
  %regionIndex.i.i.i = getelementptr inbounds i8, ptr %agg.tmp, i64 32
  store i32 %call.i.i.i9, ptr %regionIndex.i.i.i, align 8, !alias.scope !35
  %flags.i.i.i = getelementptr inbounds i8, ptr %agg.tmp, i64 36
  store i32 7, ptr %flags.i.i.i, align 4, !alias.scope !35
  %hashCode.i.i.i = getelementptr inbounds i8, ptr %agg.tmp, i64 40
  store i32 0, ptr %hashCode.i.i.i, align 8, !alias.scope !35
  br label %invoke.cont

if.else.i.i:                                      ; preds = %lor.lhs.false3.i.i
  invoke void @_ZNK6icu_7513LikelySubtags20makeMaximizedLsrFromERKNS_6LocaleEbR10UErrorCode(ptr nonnull sret(%"struct.icu_75::LSR") align 8 %agg.tmp, ptr noundef nonnull align 8 dereferenceable(352) %3, ptr noundef nonnull align 8 dereferenceable(217) %call.i8, i1 noundef zeroext false, ptr noundef nonnull align 4 dereferenceable(4) %errorCode)
          to label %invoke.cont unwind label %ehcleanup.thread

invoke.cont:                                      ; preds = %call.i.i.i.noexc, %if.else.i.i
  %call8 = invoke noundef i32 @_ZNK6icu_7513LocaleMatcher16getBestSuppIndexENS_3LSREPNS_17LocaleLsrIteratorER10UErrorCode(ptr noundef nonnull align 8 dereferenceable(104) %this, ptr noundef nonnull %agg.tmp, ptr noundef nonnull %lsrIter, ptr noundef nonnull align 4 dereferenceable(4) %errorCode)
          to label %invoke.cont7 unwind label %ehcleanup

invoke.cont7:                                     ; preds = %invoke.cont
  %owned.i = getelementptr inbounds i8, ptr %agg.tmp, i64 24
  %9 = load ptr, ptr %owned.i, align 8
  %cmp.not.i = icmp eq ptr %9, null
  br i1 %cmp.not.i, label %_ZN6icu_753LSRD2Ev.exit, label %if.then.i

if.then.i:                                        ; preds = %invoke.cont7
  invoke void @_ZN6icu_753LSR11deleteOwnedEv(ptr noundef nonnull align 8 dereferenceable(48) %agg.tmp)
          to label %_ZN6icu_753LSRD2Ev.exit unwind label %terminate.lpad.i

terminate.lpad.i:                                 ; preds = %if.then.i
  %10 = landingpad { ptr, i32 }
          catch ptr null
  %11 = extractvalue { ptr, i32 } %10, 0
  call void @__clang_call_terminate(ptr %11) #16
  unreachable

_ZN6icu_753LSRD2Ev.exit:                          ; preds = %invoke.cont7, %if.then.i
  %12 = load i32, ptr %errorCode, align 4
  %cmp.i10 = icmp slt i32 %12, 1
  %cmp = icmp sgt i32 %call8, -1
  %or.cond = and i1 %cmp, %cmp.i10
  %supportedLocales = getelementptr inbounds i8, ptr %this, i64 32
  %13 = load ptr, ptr %supportedLocales, align 8
  %idxprom = zext nneg i32 %call8 to i64
  %arrayidx = getelementptr inbounds ptr, ptr %13, i64 %idxprom
  %defaultLocale12 = getelementptr inbounds i8, ptr %this, i64 96
  %cond.in = select i1 %or.cond, ptr %arrayidx, ptr %defaultLocale12
  %cond = load ptr, ptr %cond.in, align 8
  %14 = load i32, ptr %lifetime4.i, align 8
  %cmp.i12 = icmp eq i32 %14, 0
  br i1 %cmp.i12, label %if.then.i13, label %return

if.then.i13:                                      ; preds = %_ZN6icu_753LSRD2Ev.exit
  %remembered.i = getelementptr inbounds i8, ptr %lsrIter, i64 32
  %15 = load ptr, ptr %remembered.i, align 8
  %isnull.i = icmp eq ptr %15, null
  br i1 %isnull.i, label %return, label %delete.notnull.i

delete.notnull.i:                                 ; preds = %if.then.i13
  %vtable.i14 = load ptr, ptr %15, align 8
  %vfn.i15 = getelementptr inbounds i8, ptr %vtable.i14, i64 8
  %16 = load ptr, ptr %vfn.i15, align 8
  call void %16(ptr noundef nonnull align 8 dereferenceable(217) %15) #15
  br label %return

ehcleanup.thread:                                 ; preds = %if.end5, %if.then.i.i, %if.else.i.i
  %17 = landingpad { ptr, i32 }
          cleanup
  br label %if.then.i18

ehcleanup:                                        ; preds = %invoke.cont
  %18 = landingpad { ptr, i32 }
          cleanup
  call void @_ZN6icu_753LSRD2Ev(ptr noundef nonnull align 8 dereferenceable(48) %agg.tmp) #15
  %.pre = load i32, ptr %lifetime4.i, align 8
  %19 = icmp eq i32 %.pre, 0
  br i1 %19, label %if.then.i18, label %_ZN6icu_7517LocaleLsrIteratorD2Ev.exit24

if.then.i18:                                      ; preds = %ehcleanup.thread, %ehcleanup
  %.pn28 = phi { ptr, i32 } [ %17, %ehcleanup.thread ], [ %18, %ehcleanup ]
  %remembered.i19 = getelementptr inbounds i8, ptr %lsrIter, i64 32
  %20 = load ptr, ptr %remembered.i19, align 8
  %isnull.i20 = icmp eq ptr %20, null
  br i1 %isnull.i20, label %_ZN6icu_7517LocaleLsrIteratorD2Ev.exit24, label %delete.notnull.i21

delete.notnull.i21:                               ; preds = %if.then.i18
  %vtable.i22 = load ptr, ptr %20, align 8
  %vfn.i23 = getelementptr inbounds i8, ptr %vtable.i22, i64 8
  %21 = load ptr, ptr %vfn.i23, align 8
  call void %21(ptr noundef nonnull align 8 dereferenceable(217) %20) #15
  br label %_ZN6icu_7517LocaleLsrIteratorD2Ev.exit24

_ZN6icu_7517LocaleLsrIteratorD2Ev.exit24:         ; preds = %ehcleanup, %if.then.i18, %delete.notnull.i21
  %.pn27 = phi { ptr, i32 } [ %18, %ehcleanup ], [ %.pn28, %if.then.i18 ], [ %.pn28, %delete.notnull.i21 ]
  resume { ptr, i32 } %.pn27

return:                                           ; preds = %delete.notnull.i, %if.then.i13, %_ZN6icu_753LSRD2Ev.exit, %entry, %if.then4
  %retval.0 = phi ptr [ %2, %if.then4 ], [ null, %entry ], [ %cond, %_ZN6icu_753LSRD2Ev.exit ], [ %cond, %if.then.i13 ], [ %cond, %delete.notnull.i ]
  ret ptr %retval.0
}